target datalayout = "e-m:e-p270:32:32-p271:32:32-p272:64:64-i64:64-i128:128-f80:128-n8:16:32:64-S128"
target triple = "x86_64-pc-linux-gnu"

%struct.trace_clear_local_events_struct = type { i64, i32 }

; Function Attrs: nounwind sspstrong uwtable
define hidden i32 @rb_iseq_remove_local_tracepoint_recursively(ptr noundef %0, i64 noundef %1) #0 {
  %3 = alloca ptr, align 8
  %4 = alloca i64, align 8
  %5 = alloca %struct.trace_clear_local_events_struct, align 8
  store ptr %0, ptr %3, align 8, !tbaa !7
  store i64 %1, ptr %4, align 8, !tbaa !17
  call void @llvm.lifetime.start.p0(i64 16, ptr %5) #24
  %6 = load i64, ptr %4, align 8, !tbaa !17
  %7 = getelementptr inbounds nuw %struct.trace_clear_local_events_struct, ptr %5, i32 0, i32 0
  store i64 %6, ptr %7, align 8, !tbaa !346
  %8 = getelementptr inbounds nuw %struct.trace_clear_local_events_struct, ptr %5, i32 0, i32 1
  store i32 0, ptr %8, align 8, !tbaa !348
  %9 = load ptr, ptr %3, align 8, !tbaa !7
  call void @iseq_remove_local_tracepoint_i(ptr noundef %9, ptr noundef %5)
  %10 = getelementptr inbounds nuw %struct.trace_clear_local_events_struct, ptr %5, i32 0, i32 1
  %11 = load i32, ptr %10, align 8, !tbaa !348
  call void @llvm.lifetime.end.p0(i64 16, ptr %5) #24
  ret i32 %11
}