; Function Attrs: nounwind sspstrong uwtable
define hidden i32 @rb_iseq_remove_local_tracepoint_recursively(ptr noundef %0, i64 noundef %1) local_unnamed_addr #0 {
  %3 = alloca %struct.trace_clear_local_events_struct, align 8
  call void @llvm.lifetime.start.p0(i64 16, ptr nonnull %3) #20
  store i64 %1, ptr %3, align 8, !tbaa !343
  %4 = getelementptr inbounds nuw i8, ptr %3, i64 8
  store i32 0, ptr %4, align 8, !tbaa !345
  call void @iseq_remove_local_tracepoint_i(ptr noundef %0, ptr noundef nonnull %3)
  %5 = load i32, ptr %4, align 8, !tbaa !345
  call void @llvm.lifetime.end.p0(i64 16, ptr nonnull %3) #20
  ret i32 %5
}